target datalayout = "e-m:e-p270:32:32-p271:32:32-p272:64:64-i64:64-i128:128-f80:128-n8:16:32:64-S128"
target triple = "x86_64-pc-linux-gnu"

@hf_msmms_command_prefix1_error = internal global i32 0, align 4
@hf_msmms_command_prefix2 = internal global i32 0, align 4
@hf_msmms_command_result_flags = internal global i32 0, align 4
@hf_msmms_command_broadcast_indexing = internal global i32 0, align 4
@hf_msmms_command_broadcast_liveness = internal global i32 0, align 4
@hf_msmms_command_recorded_media_length = internal global i32 0, align 4
@hf_msmms_command_media_packet_length = internal global i32 0, align 4

; Function Attrs: null_pointer_is_valid sspstrong uwtable
define internal void @dissect_media_details(ptr noundef %0, ptr noundef %1, i32 noundef %2) #0 {
  %4 = alloca ptr, align 8
  %5 = alloca ptr, align 8
  %6 = alloca i32, align 4
  store ptr %0, ptr %4, align 8
  store ptr %1, ptr %5, align 8
  store i32 %2, ptr %6, align 4
  %7 = load ptr, ptr %5, align 8
  %8 = load i32, ptr @hf_msmms_command_prefix1_error, align 4
  %9 = load ptr, ptr %4, align 8
  %10 = load i32, ptr %6, align 4
  %11 = call ptr @proto_tree_add_item(ptr noundef %7, i32 noundef %8, ptr noundef %9, i32 noundef %10, i32 noundef 4, i32 noundef -2147483648)
  %12 = load i32, ptr %6, align 4
  %13 = add i32 %12, 4
  store i32 %13, ptr %6, align 4
  %14 = load ptr, ptr %5, align 8
  %15 = load i32, ptr @hf_msmms_command_prefix2, align 4
  %16 = load ptr, ptr %4, align 8
  %17 = load i32, ptr %6, align 4
  %18 = call ptr @proto_tree_add_item(ptr noundef %14, i32 noundef %15, ptr noundef %16, i32 noundef %17, i32 noundef 4, i32 noundef -2147483648)
  %19 = load i32, ptr %6, align 4
  %20 = add i32 %19, 4
  store i32 %20, ptr %6, align 4
  %21 = load ptr, ptr %5, align 8
  %22 = load i32, ptr @hf_msmms_command_result_flags, align 4
  %23 = load ptr, ptr %4, align 8
  %24 = load i32, ptr %6, align 4
  %25 = call ptr @proto_tree_add_item(ptr noundef %21, i32 noundef %22, ptr noundef %23, i32 noundef %24, i32 noundef 4, i32 noundef -2147483648)
  %26 = load i32, ptr %6, align 4
  %27 = add i32 %26, 4
  store i32 %27, ptr %6, align 4
  %28 = load i32, ptr %6, align 4
  %29 = add i32 %28, 4
  store i32 %29, ptr %6, align 4
  %30 = load i32, ptr %6, align 4
  %31 = add i32 %30, 4
  store i32 %31, ptr %6, align 4
  %32 = load ptr, ptr %5, align 8
  %33 = load i32, ptr @hf_msmms_command_broadcast_indexing, align 4
  %34 = load ptr, ptr %4, align 8
  %35 = load i32, ptr %6, align 4
  %36 = add i32 %35, 2
  %37 = call ptr @proto_tree_add_item(ptr noundef %32, i32 noundef %33, ptr noundef %34, i32 noundef %36, i32 noundef 1, i32 noundef -2147483648)
  %38 = load ptr, ptr %5, align 8
  %39 = load i32, ptr @hf_msmms_command_broadcast_liveness, align 4
  %40 = load ptr, ptr %4, align 8
  %41 = load i32, ptr %6, align 4
  %42 = add i32 %41, 3
  %43 = call ptr @proto_tree_add_item(ptr noundef %38, i32 noundef %39, ptr noundef %40, i32 noundef %42, i32 noundef 1, i32 noundef -2147483648)
  %44 = load i32, ptr %6, align 4
  %45 = add i32 %44, 4
  store i32 %45, ptr %6, align 4
  %46 = load i32, ptr %6, align 4
  %47 = add i32 %46, 4
  store i32 %47, ptr %6, align 4
  %48 = load i32, ptr %6, align 4
  %49 = add i32 %48, 4
  store i32 %49, ptr %6, align 4
  %50 = load ptr, ptr %5, align 8
  %51 = load i32, ptr @hf_msmms_command_recorded_media_length, align 4
  %52 = load ptr, ptr %4, align 8
  %53 = load i32, ptr %6, align 4
  %54 = call ptr @proto_tree_add_item(ptr noundef %50, i32 noundef %51, ptr noundef %52, i32 noundef %53, i32 noundef 4, i32 noundef -2147483648)
  %55 = load i32, ptr %6, align 4
  %56 = add i32 %55, 4
  store i32 %56, ptr %6, align 4
  %57 = load i32, ptr %6, align 4
  %58 = add i32 %57, 4
  store i32 %58, ptr %6, align 4
  %59 = load i32, ptr %6, align 4
  %60 = add i32 %59, 4
  store i32 %60, ptr %6, align 4
  %61 = load i32, ptr %6, align 4
  %62 = add i32 %61, 4
  store i32 %62, ptr %6, align 4
  %63 = load i32, ptr %6, align 4
  %64 = add i32 %63, 4
  store i32 %64, ptr %6, align 4
  %65 = load ptr, ptr %5, align 8
  %66 = load i32, ptr @hf_msmms_command_media_packet_length, align 4
  %67 = load ptr, ptr %4, align 8
  %68 = load i32, ptr %6, align 4
  %69 = call ptr @proto_tree_add_item(ptr noundef %65, i32 noundef %66, ptr noundef %67, i32 noundef %68, i32 noundef 4, i32 noundef -2147483648)
  ret void
}