; Function Attrs: null_pointer_is_valid sspstrong uwtable
define internal fastcc void @dissect_media_details(ptr noundef %0, ptr noundef %1) unnamed_addr #0 {
  %3 = load i32, ptr @hf_msmms_command_prefix1_error, align 4
  %4 = tail call ptr @proto_tree_add_item(ptr noundef %1, i32 noundef %3, ptr noundef %0, i32 noundef 40, i32 noundef 4, i32 noundef -2147483648)
  %5 = load i32, ptr @hf_msmms_command_prefix2, align 4
  %6 = tail call ptr @proto_tree_add_item(ptr noundef %1, i32 noundef %5, ptr noundef %0, i32 noundef 44, i32 noundef 4, i32 noundef -2147483648)
  %7 = load i32, ptr @hf_msmms_command_result_flags, align 4
  %8 = tail call ptr @proto_tree_add_item(ptr noundef %1, i32 noundef %7, ptr noundef %0, i32 noundef 48, i32 noundef 4, i32 noundef -2147483648)
  %9 = load i32, ptr @hf_msmms_command_broadcast_indexing, align 4
  %10 = tail call ptr @proto_tree_add_item(ptr noundef %1, i32 noundef %9, ptr noundef %0, i32 noundef 62, i32 noundef 1, i32 noundef -2147483648)
  %11 = load i32, ptr @hf_msmms_command_broadcast_liveness, align 4
  %12 = tail call ptr @proto_tree_add_item(ptr noundef %1, i32 noundef %11, ptr noundef %0, i32 noundef 63, i32 noundef 1, i32 noundef -2147483648)
  %13 = load i32, ptr @hf_msmms_command_recorded_media_length, align 4
  %14 = tail call ptr @proto_tree_add_item(ptr noundef %1, i32 noundef %13, ptr noundef %0, i32 noundef 72, i32 noundef 4, i32 noundef -2147483648)
  %15 = load i32, ptr @hf_msmms_command_media_packet_length, align 4
  %16 = tail call ptr @proto_tree_add_item(ptr noundef %1, i32 noundef %15, ptr noundef %0, i32 noundef 92, i32 noundef 4, i32 noundef -2147483648)
  ret void
}